target datalayout = "e-m:e-p270:32:32-p271:32:32-p272:64:64-i64:64-i128:128-f80:128-n8:16:32:64-S128"
target triple = "x86_64-pc-linux-gnu"

%"struct.faiss::Index" = type <{ ptr, i32, [4 x i8], i64, i8, i8, [2 x i8], i32, float, [4 x i8] }>
%"class.std::vector.14" = type { %"struct.std::_Vector_base.15" }
%"struct.std::_Vector_base.15" = type { %"struct.std::_Vector_base<long, std::allocator<long>>::_Vector_impl" }
%"struct.std::_Vector_base<long, std::allocator<long>>::_Vector_impl" = type { %"struct.std::_Vector_base<long, std::allocator<long>>::_Vector_impl_data" }
%"struct.std::_Vector_base<long, std::allocator<long>>::_Vector_impl_data" = type { ptr, ptr, ptr }
%class.anon = type { i64, ptr, ptr, i64, i64, %"class.std::vector.14" }

@_ZTIN5faiss5IndexE = external constant ptr
@_ZTIN5faiss8IndexIVFE = external constant ptr
@.str.24 = private unnamed_addr constant [34 x i8] c"begin add shard %d on %ld points\0A\00", align 1
@.str.25 = private unnamed_addr constant [32 x i8] c"end add shard %d on %ld points\0A\00", align 1

; Function Attrs: mustprogress nounwind uwtable
define linkonce_odr noundef ptr @_ZNKSt6vectorIlSaIlEE11_M_data_ptrIlEEPT_S4_(ptr noundef nonnull align 8 dereferenceable(24) %0, ptr noundef %1) #0 comdat align 2 {
  %3 = alloca ptr, align 8
  %4 = alloca ptr, align 8
  store ptr %0, ptr %3, align 8
  store ptr %1, ptr %4, align 8
  %5 = load ptr, ptr %4, align 8
  ret ptr %5
}

; Function Attrs: mustprogress nounwind uwtable
define linkonce_odr noundef ptr @_ZNKSt6vectorIlSaIlEE4dataEv(ptr noundef nonnull align 8 dereferenceable(24) %0) #0 comdat align 2 {
  %2 = alloca ptr, align 8
  store ptr %0, ptr %2, align 8
  %3 = load ptr, ptr %2, align 8
  %4 = getelementptr inbounds %"struct.std::_Vector_base.15", ptr %3, i32 0, i32 0
  %5 = getelementptr inbounds %"struct.std::_Vector_base<long, std::allocator<long>>::_Vector_impl_data", ptr %4, i32 0, i32 0
  %6 = load ptr, ptr %5, align 8
  %7 = call noundef ptr @_ZNKSt6vectorIlSaIlEE11_M_data_ptrIlEEPT_S4_(ptr noundef nonnull align 8 dereferenceable(24) %3, ptr noundef %6) #5
  ret ptr %7
}

; Function Attrs: mustprogress uwtable
define internal void @"_ZZN5faiss14IndexShardsIVF12add_with_idsElPKfPKlENK3$_0clEiPNS_5IndexE"(ptr noundef nonnull align 8 dereferenceable(64) %0, i32 noundef %1, ptr noundef %2) #1 align 2 {
  %4 = alloca ptr, align 8
  %5 = alloca i32, align 4
  %6 = alloca ptr, align 8
  %7 = alloca i64, align 8
  %8 = alloca i64, align 8
  %9 = alloca ptr, align 8
  store ptr %0, ptr %4, align 8
  store i32 %1, ptr %5, align 4
  store ptr %2, ptr %6, align 8
  %10 = load ptr, ptr %4, align 8
  %11 = load i32, ptr %5, align 4
  %12 = sext i32 %11 to i64
  %13 = getelementptr inbounds %class.anon, ptr %10, i32 0, i32 0
  %14 = load i64, ptr %13, align 8
  %15 = mul nsw i64 %12, %14
  %16 = getelementptr inbounds %class.anon, ptr %10, i32 0, i32 3
  %17 = load i64, ptr %16, align 8
  %18 = sdiv i64 %15, %17
  store i64 %18, ptr %7, align 8
  %19 = load i32, ptr %5, align 4
  %20 = sext i32 %19 to i64
  %21 = add nsw i64 %20, 1
  %22 = getelementptr inbounds %class.anon, ptr %10, i32 0, i32 0
  %23 = load i64, ptr %22, align 8
  %24 = mul nsw i64 %21, %23
  %25 = getelementptr inbounds %class.anon, ptr %10, i32 0, i32 3
  %26 = load i64, ptr %25, align 8
  %27 = sdiv i64 %24, %26
  store i64 %27, ptr %8, align 8
  %28 = load ptr, ptr %6, align 8
  %29 = icmp eq ptr %28, null
  br i1 %29, label %32, label %30

30:                                               ; preds = %3
  %31 = call ptr @__dynamic_cast(ptr %28, ptr @_ZTIN5faiss5IndexE, ptr @_ZTIN5faiss8IndexIVFE, i64 0) #5
  br label %33

32:                                               ; preds = %3
  br label %33

33:                                               ; preds = %32, %30
  %34 = phi ptr [ %31, %30 ], [ null, %32 ]
  store ptr %34, ptr %9, align 8
  %35 = load ptr, ptr %6, align 8
  %36 = getelementptr inbounds %"struct.faiss::Index", ptr %35, i32 0, i32 4
  %37 = load i8, ptr %36, align 8
  %38 = trunc i8 %37 to i1
  br i1 %38, label %39, label %44

39:                                               ; preds = %33
  %40 = load i32, ptr %5, align 4
  %41 = getelementptr inbounds %class.anon, ptr %10, i32 0, i32 0
  %42 = load i64, ptr %41, align 8
  %43 = call i32 (ptr, ...) @printf(ptr noundef @.str.24, i32 noundef %40, i64 noundef %42)
  br label %44

44:                                               ; preds = %39, %33
  %45 = load ptr, ptr %9, align 8
  %46 = load i64, ptr %8, align 8
  %47 = load i64, ptr %7, align 8
  %48 = sub nsw i64 %46, %47
  %49 = getelementptr inbounds %class.anon, ptr %10, i32 0, i32 2
  %50 = load ptr, ptr %49, align 8
  %51 = load i64, ptr %7, align 8
  %52 = getelementptr inbounds %class.anon, ptr %10, i32 0, i32 4
  %53 = load i64, ptr %52, align 8
  %54 = mul nsw i64 %51, %53
  %55 = getelementptr inbounds float, ptr %50, i64 %54
  %56 = getelementptr inbounds %class.anon, ptr %10, i32 0, i32 1
  %57 = load ptr, ptr %56, align 8
  %58 = icmp ne ptr %57, null
  br i1 %58, label %59, label %64

59:                                               ; preds = %44
  %60 = getelementptr inbounds %class.anon, ptr %10, i32 0, i32 1
  %61 = load ptr, ptr %60, align 8
  %62 = load i64, ptr %7, align 8
  %63 = getelementptr inbounds i64, ptr %61, i64 %62
  br label %65

64:                                               ; preds = %44
  br label %65

65:                                               ; preds = %64, %59
  %66 = phi ptr [ %63, %59 ], [ null, %64 ]
  %67 = getelementptr inbounds %class.anon, ptr %10, i32 0, i32 5
  %68 = call noundef ptr @_ZNKSt6vectorIlSaIlEE4dataEv(ptr noundef nonnull align 8 dereferenceable(24) %67) #5
  %69 = load i64, ptr %7, align 8
  %70 = getelementptr inbounds i64, ptr %68, i64 %69
  %71 = load ptr, ptr %45, align 8
  %72 = getelementptr inbounds ptr, ptr %71, i64 22
  %73 = load ptr, ptr %72, align 8
  call void %73(ptr noundef nonnull align 8 dereferenceable(257) %45, i64 noundef %48, ptr noundef %55, ptr noundef %66, ptr noundef %70, ptr noundef null)
  %74 = load ptr, ptr %6, align 8
  %75 = getelementptr inbounds %"struct.faiss::Index", ptr %74, i32 0, i32 4
  %76 = load i8, ptr %75, align 8
  %77 = trunc i8 %76 to i1
  br i1 %77, label %78, label %84

78:                                               ; preds = %65
  %79 = load i32, ptr %5, align 4
  %80 = load i64, ptr %8, align 8
  %81 = load i64, ptr %7, align 8
  %82 = sub nsw i64 %80, %81
  %83 = call i32 (ptr, ...) @printf(ptr noundef @.str.25, i32 noundef %79, i64 noundef %82)
  br label %84

84:                                               ; preds = %78, %65
  ret void
}

; Function Attrs: mustprogress nounwind uwtable
define linkonce_odr noundef ptr @_ZNKSt9_Any_data9_M_accessEv(ptr noundef nonnull align 8 dereferenceable(16) %0) #0 comdat align 2 {
  %2 = alloca ptr, align 8
  store ptr %0, ptr %2, align 8
  %3 = load ptr, ptr %2, align 8
  %4 = getelementptr inbounds [16 x i8], ptr %3, i64 0, i64 0
  ret ptr %4
}

; Function Attrs: mustprogress uwtable
define internal void @"_ZSt13__invoke_implIvRZN5faiss14IndexShardsIVF12add_with_idsElPKfPKlE3$_0JiPNS0_5IndexEEET_St14__invoke_otherOT0_DpOT1_"(ptr noundef nonnull align 8 dereferenceable(64) %0, ptr noundef nonnull align 4 dereferenceable(4) %1, ptr noundef nonnull align 8 dereferenceable(8) %2) #1 {
  %4 = alloca ptr, align 8
  %5 = alloca ptr, align 8
  %6 = alloca ptr, align 8
  store ptr %0, ptr %4, align 8
  store ptr %1, ptr %5, align 8
  store ptr %2, ptr %6, align 8
  %7 = load ptr, ptr %4, align 8
  %8 = load ptr, ptr %5, align 8
  %9 = load i32, ptr %8, align 4
  %10 = load ptr, ptr %6, align 8
  %11 = load ptr, ptr %10, align 8
  call void @"_ZZN5faiss14IndexShardsIVF12add_with_idsElPKfPKlENK3$_0clEiPNS_5IndexE"(ptr noundef nonnull align 8 dereferenceable(64) %7, i32 noundef %9, ptr noundef %11)
  ret void
}

; Function Attrs: mustprogress nounwind uwtable
define internal noundef nonnull align 8 dereferenceable(8) ptr @"_ZNKSt9_Any_data9_M_accessIPZN5faiss14IndexShardsIVF12add_with_idsElPKfPKlE3$_0EERKT_v"(ptr noundef nonnull align 8 dereferenceable(16) %0) #0 align 2 {
  %2 = alloca ptr, align 8
  store ptr %0, ptr %2, align 8
  %3 = load ptr, ptr %2, align 8
  %4 = call noundef ptr @_ZNKSt9_Any_data9_M_accessEv(ptr noundef nonnull align 8 dereferenceable(16) %3) #5
  ret ptr %4
}

; Function Attrs: mustprogress uwtable
define internal void @"_ZSt10__invoke_rIvRZN5faiss14IndexShardsIVF12add_with_idsElPKfPKlE3$_0JiPNS0_5IndexEEENSt9enable_ifIX16is_invocable_r_vIT_T0_DpT1_EESB_E4typeEOSC_DpOSD_"(ptr noundef nonnull align 8 dereferenceable(64) %0, ptr noundef nonnull align 4 dereferenceable(4) %1, ptr noundef nonnull align 8 dereferenceable(8) %2) #1 {
  %4 = alloca ptr, align 8
  %5 = alloca ptr, align 8
  %6 = alloca ptr, align 8
  store ptr %0, ptr %4, align 8
  store ptr %1, ptr %5, align 8
  store ptr %2, ptr %6, align 8
  %7 = load ptr, ptr %4, align 8
  %8 = load ptr, ptr %5, align 8
  %9 = load ptr, ptr %6, align 8
  call void @"_ZSt13__invoke_implIvRZN5faiss14IndexShardsIVF12add_with_idsElPKfPKlE3$_0JiPNS0_5IndexEEET_St14__invoke_otherOT0_DpOT1_"(ptr noundef nonnull align 8 dereferenceable(64) %7, ptr noundef nonnull align 4 dereferenceable(4) %8, ptr noundef nonnull align 8 dereferenceable(8) %9)
  ret void
}

; Function Attrs: mustprogress nounwind uwtable
define internal noundef ptr @"_ZNSt14_Function_base13_Base_managerIZN5faiss14IndexShardsIVF12add_with_idsElPKfPKlE3$_0E14_M_get_pointerERKSt9_Any_data"(ptr noundef nonnull align 8 dereferenceable(16) %0) #0 align 2 {
  %2 = alloca ptr, align 8
  store ptr %0, ptr %2, align 8
  %3 = load ptr, ptr %2, align 8
  %4 = call noundef nonnull align 8 dereferenceable(8) ptr @"_ZNKSt9_Any_data9_M_accessIPZN5faiss14IndexShardsIVF12add_with_idsElPKfPKlE3$_0EERKT_v"(ptr noundef nonnull align 8 dereferenceable(16) %3) #5
  %5 = load ptr, ptr %4, align 8
  ret ptr %5
}

; Function Attrs: mustprogress uwtable
define internal void @"_ZNSt17_Function_handlerIFviPN5faiss5IndexEEZNS0_14IndexShardsIVF12add_with_idsElPKfPKlE3$_0E9_M_invokeERKSt9_Any_dataOiOS2_"(ptr noundef nonnull align 8 dereferenceable(16) %0, ptr noundef nonnull align 4 dereferenceable(4) %1, ptr noundef nonnull align 8 dereferenceable(8) %2) #1 align 2 {
  %4 = alloca ptr, align 8
  %5 = alloca ptr, align 8
  %6 = alloca ptr, align 8
  store ptr %0, ptr %4, align 8
  store ptr %1, ptr %5, align 8
  store ptr %2, ptr %6, align 8
  %7 = load ptr, ptr %4, align 8
  %8 = call noundef ptr @"_ZNSt14_Function_base13_Base_managerIZN5faiss14IndexShardsIVF12add_with_idsElPKfPKlE3$_0E14_M_get_pointerERKSt9_Any_data"(ptr noundef nonnull align 8 dereferenceable(16) %7) #5
  %9 = load ptr, ptr %5, align 8
  %10 = load ptr, ptr %6, align 8
  call void @"_ZSt10__invoke_rIvRZN5faiss14IndexShardsIVF12add_with_idsElPKfPKlE3$_0JiPNS0_5IndexEEENSt9enable_ifIX16is_invocable_r_vIT_T0_DpT1_EESB_E4typeEOSC_DpOSD_"(ptr noundef nonnull align 8 dereferenceable(64) %8, ptr noundef nonnull align 4 dereferenceable(4) %9, ptr noundef nonnull align 8 dereferenceable(8) %10)
  ret void
}