; Function Attrs: mustprogress uwtable
define internal void @"_ZNSt17_Function_handlerIFviPN5faiss5IndexEEZNS0_14IndexShardsIVF12add_with_idsElPKfPKlE3$_0E9_M_invokeERKSt9_Any_dataOiOS2_"(ptr nocapture noundef nonnull readonly align 8 dereferenceable(16) %0, ptr nocapture noundef nonnull readonly align 4 dereferenceable(4) %1, ptr nocapture noundef nonnull readonly align 8 dereferenceable(8) %2) #1 align 2 {
  %.val = load ptr, ptr %0, align 8
  %.val3 = load i32, ptr %1, align 4
  %.val4 = load ptr, ptr %2, align 8
  %4 = sext i32 %.val3 to i64
  %5 = load i64, ptr %.val, align 8
  %6 = mul nsw i64 %5, %4
  %7 = getelementptr inbounds i8, ptr %.val, i64 24
  %8 = load i64, ptr %7, align 8
  %9 = sdiv i64 %6, %8
  %10 = add nsw i64 %4, 1
  %11 = mul nsw i64 %5, %10
  %12 = sdiv i64 %11, %8
  %13 = icmp eq ptr %.val4, null
  br i1 %13, label %16, label %14

14:                                               ; preds = %3
  %15 = tail call ptr @__dynamic_cast(ptr nonnull %.val4, ptr nonnull @_ZTIN5faiss5IndexE, ptr nonnull @_ZTIN5faiss8IndexIVFE, i64 0) #19
  br label %16

16:                                               ; preds = %14, %3
  %17 = phi ptr [ %15, %14 ], [ null, %3 ]
  %18 = getelementptr inbounds i8, ptr %.val4, i64 24
  %19 = load i8, ptr %18, align 8
  %20 = and i8 %19, 1
  %.not.i.i.i = icmp eq i8 %20, 0
  br i1 %.not.i.i.i, label %23, label %21

21:                                               ; preds = %16
  %22 = tail call i32 (ptr, ...) @printf(ptr noundef nonnull dereferenceable(1) @.str.24, i32 noundef %.val3, i64 noundef %5)
  br label %23

23:                                               ; preds = %21, %16
  %24 = sub nsw i64 %12, %9
  %25 = getelementptr inbounds i8, ptr %.val, i64 16
  %26 = load ptr, ptr %25, align 8
  %27 = getelementptr inbounds i8, ptr %.val, i64 32
  %28 = load i64, ptr %27, align 8
  %29 = mul nsw i64 %28, %9
  %30 = getelementptr inbounds float, ptr %26, i64 %29
  %31 = getelementptr inbounds i8, ptr %.val, i64 8
  %32 = load ptr, ptr %31, align 8
  %.not16.i.i.i = icmp eq ptr %32, null
  %33 = getelementptr inbounds i64, ptr %32, i64 %9
  %spec.select.i.i.i = select i1 %.not16.i.i.i, ptr null, ptr %33
  %34 = getelementptr inbounds i8, ptr %.val, i64 40
  %35 = load ptr, ptr %34, align 8
  %36 = getelementptr inbounds i64, ptr %35, i64 %9
  %37 = load ptr, ptr %17, align 8
  %38 = getelementptr inbounds i8, ptr %37, i64 176
  %39 = load ptr, ptr %38, align 8
  tail call void %39(ptr noundef nonnull align 8 dereferenceable(257) %17, i64 noundef %24, ptr noundef %30, ptr noundef %spec.select.i.i.i, ptr noundef %36, ptr noundef null)
  %40 = load i8, ptr %18, align 8
  %41 = and i8 %40, 1
  %.not17.i.i.i = icmp eq i8 %41, 0
  br i1 %.not17.i.i.i, label %"_ZSt10__invoke_rIvRZN5faiss14IndexShardsIVF12add_with_idsElPKfPKlE3$_0JiPNS0_5IndexEEENSt9enable_ifIX16is_invocable_r_vIT_T0_DpT1_EESB_E4typeEOSC_DpOSD_.exit", label %42

42:                                               ; preds = %23
  %43 = tail call i32 (ptr, ...) @printf(ptr noundef nonnull dereferenceable(1) @.str.25, i32 noundef %.val3, i64 noundef %24)
  br label %"_ZSt10__invoke_rIvRZN5faiss14IndexShardsIVF12add_with_idsElPKfPKlE3$_0JiPNS0_5IndexEEENSt9enable_ifIX16is_invocable_r_vIT_T0_DpT1_EESB_E4typeEOSC_DpOSD_.exit"

"_ZSt10__invoke_rIvRZN5faiss14IndexShardsIVF12add_with_idsElPKfPKlE3$_0JiPNS0_5IndexEEENSt9enable_ifIX16is_invocable_r_vIT_T0_DpT1_EESB_E4typeEOSC_DpOSD_.exit": ; preds = %23, %42
  ret void
}